(dp0
S'08G-QSS2:Curr1'
p1
F1.0
sS'02G-QSS3:Curr1'
p2
F1.0
sS'12G-QSS3:Curr1'
p3
F1.0
sS'noise'
p4
F0.0001
sS'01G-QSS4:Curr1'
p5
F1.0
sS'05G-QSS3:Curr1'
p6
F1.0
sS'14G-QSS2:Curr1'
p7
F1.0
sS'17G-QSS2:Curr1'
p8
F1.0
sS'11G-QSS3:Curr1'
p9
F1.0
sS'09G-QSS1:Curr1'
p10
F1.0
sS'07G-QSS2:Curr1'
p11
F1.0
sS'amp'
p12
F0.01
sS'16G-QSS2:Curr1'
p13
F1.0
sS'18G-QSS1:Curr1'
p14
F1.0
sS'10G-QSS4:Curr1'
p15
F1.0
s.