(dp0
S'L1:QM4:CurrentAO'
p1
F0.43543634405585974
sS'L1:SC4:VL:CurrentAO'
p2
F0.3273945587526739
sS'L1:QM3:CurrentAO'
p3
F0.3158423893859076
sS'L1:RG2:SC3:VL:CurrentAO'
p4
F0.5988965703421754
sS'L1:RG2:SC3:HZ:CurrentAO'
p5
F0.5017626052966265
sS'L1:RG2:SC1:VL:CurrentAO'
p6
F0.28765414867943967
sS'L1:RG2:QM3:CurrentAO'
p7
F0.7153908918043846
sS'L1:SC4:HZ:CurrentAO'
p8
F0.540821787670209
sS'L1:RG2:QM2:CurrentAO'
p9
F0.45608514693815233
sS'L1:RG2:SC2:VL:CurrentAO'
p10
F0.21627291095439452
sS'L1:RG2:SC2:HZ:CurrentAO'
p11
F0.3130967325151168
sS'L1:RG2:QM1:CurrentAO'
p12
F0.38035920939455653
sS'noise'
p13
F0.0004952875307346928
sS'L1:SC3:HZ:CurrentAO'
p14
F0.7121625597281711
sS'L1:SC3:VL:CurrentAO'
p15
F0.23940604754744285
sS'amp'
p16
F0.09861835988630561
sS'L1:RG2:QM4:CurrentAO'
p17
F1.1543296688702271
sS'L1:QM5:CurrentAO'
p18
F0.8698200895298464
s.