(dp0
S'L1:QM4:CurrentAO'
p1
F0.24826348
sS'L1:SC4:VL:CurrentAO'
p2
F0.20008924
sS'L1:QM3:CurrentAO'
p3
F0.14711107
sS'L1:RG2:SC3:VL:CurrentAO'
p4
F0.49242131
sS'L1:RG2:SC3:HZ:CurrentAO'
p5
F0.96105928
sS'L1:RG2:SC1:VL:CurrentAO'
p6
F0.37638048
sS'L1:RG2:QM3:CurrentAO'
p7
F0.47829405
sS'L1:SC4:HZ:CurrentAO'
p8
F0.07952513
sS'L1:RG2:QM2:CurrentAO'
p9
F0.26574095
sS'L1:RG2:SC2:VL:CurrentAO'
p10
F0.38513674
sS'L1:RG2:SC2:HZ:CurrentAO'
p11
F0.66085644
sS'L1:RG2:QM1:CurrentAO'
p12
F0.22078988
sS'noise'
p13
F0.00019078093245028939
sS'L1:SC3:HZ:CurrentAO'
p14
F0.20863498
sS'L1:SC3:VL:CurrentAO'
p15
F0.2242516
sS'amp'
p16
F0.14740807434028955
sS'L1:RG2:QM4:CurrentAO'
p17
F1.00406362
sS'L1:QM5:CurrentAO'
p18
F0.54836268
s.