(dp0
S'L1:QM4:CurrentAO'
p1
F0.57697836
sS'L1:QM3:CurrentAO'
p2
F0.31416264
sS'L1:RG2:SC3:VL:CurrentAO'
p3
F0.29098141
sS'L1:RG2:SC3:HZ:CurrentAO'
p4
F0.42665865
sS'L1:RG2:SC1:VL:CurrentAO'
p5
F0.67361431
sS'L1:RG2:QM3:CurrentAO'
p6
F0.52074331
sS'L1:RG2:QM2:CurrentAO'
p7
F0.51113118
sS'L1:RG2:SC2:VL:CurrentAO'
p8
F0.61509133
sS'L1:RG2:SC2:HZ:CurrentAO'
p9
F0.51629454
sS'L1:RG2:QM1:CurrentAO'
p10
F0.8246469
sS'noise'
p11
F0.06565608478608254
sS'amp'
p12
F0.19788069543846426
sS'L1:RG2:QM4:CurrentAO'
p13
F0.43801243
sS'L1:QM5:CurrentAO'
p14
F0.34906042
s.