(dp0
S'L1:QM4:CurrentAO'
p1
I1
sS'L1:SC4:VL:CurrentAO'
p2
I1
sS'L1:QM3:CurrentAO'
p3
I1
sS'L1:RG2:SC3:VL:CurrentAO'
p4
I1
sS'L1:RG2:SC3:HZ:CurrentAO'
p5
I1
sS'L1:RG2:SC1:VL:CurrentAO'
p6
I1
sS'L1:RG2:QM3:CurrentAO'
p7
I1
sS'L1:SC4:HZ:CurrentAO'
p8
I1
sS'L1:RG2:QM2:CurrentAO'
p9
I1
sS'L1:RG2:SC2:VL:CurrentAO'
p10
I1
sS'L1:RG2:SC2:HZ:CurrentAO'
p11
I1
sS'L1:RG2:QM1:CurrentAO'
p12
I1
sS'noise'
p13
F0.0004952875307346928
sS'L1:SC3:HZ:CurrentAO'
p14
I1
sS'L1:SC3:VL:CurrentAO'
p15
I1
sS'amp'
p16
F0.09861835988630561
sS'L1:RG2:QM4:CurrentAO'
p17
I1
sS'L1:QM5:CurrentAO'
p18
I1
s.