(dp0
S'L1:QM4:CurrentAO'
p1
F0.3611339
sS'L1:QM3:CurrentAO'
p2
F0.28021579
sS'L1:RG2:SC3:VL:CurrentAO'
p3
F0.54075733
sS'L1:RG2:SC3:HZ:CurrentAO'
p4
F0.57953255
sS'L1:RG2:SC1:VL:CurrentAO'
p5
F0.32149422
sS'L1:RG2:QM3:CurrentAO'
p6
F0.55869266
sS'L1:RG2:QM2:CurrentAO'
p7
F0.28222969
sS'L1:RG2:SC2:VL:CurrentAO'
p8
F0.32538725
sS'L1:RG2:SC2:HZ:CurrentAO'
p9
F0.41768433
sS'L1:RG2:QM1:CurrentAO'
p10
F0.30823974
sS'noise'
p11
F0.04858748309
sS'amp'
p12
F0.08501787965
sS'L1:RG2:QM4:CurrentAO'
p13
F0.71698127
sS'L1:QM5:CurrentAO'
p14
F0.52191877
s.