(dp0
S'L1:QM4:CurrentAO'
p1
F1.00184452
sS'L1:SC4:VL:CurrentAO'
p2
F0.87199787
sS'noise'
p3
F0.00014944309862160857
sS'L1:RG2:SC3:VL:CurrentAO'
p4
F2.24330837
sS'L1:RG2:SC3:HZ:CurrentAO'
p5
F2.43048938
sS'L1:RG2:SC1:VL:CurrentAO'
p6
F1.17587559
sS'L1:RG2:QM3:CurrentAO'
p7
F1.93485995
sS'L1:SC4:HZ:CurrentAO'
p8
F0.24202489
sS'L1:RG2:QM2:CurrentAO'
p9
F1.15166326
sS'L1:RG2:SC2:VL:CurrentAO'
p10
F1.20989785
sS'L1:RG2:SC2:HZ:CurrentAO'
p11
F1.91437433
sS'L1:QM3:CurrentAO'
p12
F0.5435236
sS'L1:RG2:QM1:CurrentAO'
p13
F1.14104442
sS'L1:SC3:HZ:CurrentAO'
p14
F0.79114557
sS'L1:SC3:VL:CurrentAO'
p15
F0.64170614
sS'amp'
p16
F0.3057118422862669
sS'L1:RG2:QM4:CurrentAO'
p17
F3.53009842
sS'L1:QM5:CurrentAO'
p18
F1.7408325
s.