(dp0
S'L1:QM4:CurrentAO'
p1
F1.01722377
sS'L1:SC4:VL:CurrentAO'
p2
F0.86584808
sS'L1:QM3:CurrentAO'
p3
F0.5736346
sS'L1:RG2:SC3:VL:CurrentAO'
p4
F2.21487763
sS'L1:RG2:SC3:HZ:CurrentAO'
p5
F2.26070738
sS'L1:RG2:SC1:VL:CurrentAO'
p6
F0.99742879
sS'L1:RG2:QM3:CurrentAO'
p7
F1.67322035
sS'L1:SC4:HZ:CurrentAO'
p8
F0.34600119
sS'L1:RG2:QM2:CurrentAO'
p9
F0.93354679
sS'L1:RG2:SC2:VL:CurrentAO'
p10
F0.86538688
sS'L1:RG2:SC2:HZ:CurrentAO'
p11
F1.73075448
sS'L1:RG2:QM1:CurrentAO'
p12
F1.07022477
sS'noise'
p13
F0.0001978023533
sS'L1:SC3:HZ:CurrentAO'
p14
F0.77684175
sS'L1:SC3:VL:CurrentAO'
p15
F0.6217432
sS'amp'
p16
F0.2954768632
sS'L1:RG2:QM4:CurrentAO'
p17
F3.22587812
sS'L1:QM5:CurrentAO'
p18
F1.79983342
s.