(dp0
S'L1:QM4:CurrentAO'
p1
F0.33971465
sS'L1:QM3:CurrentAO'
p2
F0.21344806
sS'L1:RG2:SC3:VL:CurrentAO'
p3
F0.57507362
sS'L1:RG2:SC3:HZ:CurrentAO'
p4
F0.54919454
sS'L1:RG2:SC1:VL:CurrentAO'
p5
F0.36233996
sS'L1:RG2:QM3:CurrentAO'
p6
F0.60052556
sS'L1:RG2:QM2:CurrentAO'
p7
F0.31034553
sS'L1:RG2:SC2:VL:CurrentAO'
p8
F0.32054675
sS'L1:RG2:SC2:HZ:CurrentAO'
p9
F0.35201099
sS'L1:RG2:QM1:CurrentAO'
p10
F0.28131369
sS'noise'
p11
F0.05761468336008892
sS'amp'
p12
F0.09213672488797832
sS'L1:RG2:QM4:CurrentAO'
p13
F0.64906617
sS'L1:QM5:CurrentAO'
p14
F0.44512081
s.