(dp0
S'L1:QM4:CurrentAO'
p1
F0.48676285
sS'L1:SC4:VL:CurrentAO'
p2
F0.39346024
sS'noise'
p3
F0.00015752787526062437
sS'L1:RG2:SC3:VL:CurrentAO'
p4
F0.85157653
sS'L1:RG2:SC3:HZ:CurrentAO'
p5
F1.33504816
sS'L1:RG2:SC1:VL:CurrentAO'
p6
F0.62080341
sS'L1:RG2:QM3:CurrentAO'
p7
F0.93287674
sS'L1:SC4:HZ:CurrentAO'
p8
F0.12904501
sS'L1:RG2:QM2:CurrentAO'
p9
F0.57974298
sS'L1:RG2:SC2:VL:CurrentAO'
p10
F0.63068022
sS'L1:RG2:SC2:HZ:CurrentAO'
p11
F1.00700028
sS'L1:QM3:CurrentAO'
p12
F0.2781559
sS'L1:RG2:QM1:CurrentAO'
p13
F0.5301943
sS'L1:SC3:HZ:CurrentAO'
p14
F0.38468695
sS'L1:SC3:VL:CurrentAO'
p15
F0.34187084
sS'amp'
p16
F0.16033151005207602
sS'L1:RG2:QM4:CurrentAO'
p17
F1.55738394
sS'L1:QM5:CurrentAO'
p18
F0.90039229
s.